target datalayout = "e-m:e-p270:32:32-p271:32:32-p272:64:64-i64:64-i128:128-f80:128-n8:16:32:64-S128"
target triple = "x86_64-pc-linux-gnu"

%class.Sample = type { ptr, ptr, ptr, ptr, ptr, i8, float, float, float, float, float, float, float, float, float, float, float, float, float, i32, i8, i8, i8, ptr, [9 x ptr], ptr, %class.SampleDebugDraw }
%class.SampleDebugDraw = type { %class.DebugDrawGL }
%class.DebugDrawGL = type { %struct.duDebugDraw }
%struct.duDebugDraw = type { ptr }
%class.Sample_TempObstacles = type <{ %class.Sample, i8, [7 x i8], ptr, ptr, ptr, ptr, float, i32, i32, i32, i32, i32, i32, i32, float, [4 x i8] }>
%struct.MeshProcess = type { %struct.dtTileCacheMeshProcess, ptr }
%struct.dtTileCacheMeshProcess = type { ptr }

; Function Attrs: mustprogress nounwind uwtable
define linkonce_odr dso_local void @_ZN11MeshProcess4initEP9InputGeom(ptr noundef nonnull align 8 dereferenceable(16) %0, ptr noundef %1) #0 comdat align 2 {
  %3 = alloca ptr, align 8
  %4 = alloca ptr, align 8
  store ptr %0, ptr %3, align 8
  store ptr %1, ptr %4, align 8
  %5 = load ptr, ptr %3, align 8
  %6 = load ptr, ptr %4, align 8
  %7 = getelementptr inbounds %struct.MeshProcess, ptr %5, i32 0, i32 1
  store ptr %6, ptr %7, align 8
  ret void
}

; Function Attrs: mustprogress uwtable
define dso_local void @_ZN20Sample_TempObstacles17handleMeshChangedEP9InputGeom(ptr noundef nonnull align 8 dereferenceable(276) %0, ptr noundef %1) unnamed_addr #5 align 2 {
  %3 = alloca ptr, align 8
  %4 = alloca ptr, align 8
  store ptr %0, ptr %3, align 8
  store ptr %1, ptr %4, align 8
  %5 = load ptr, ptr %3, align 8
  %6 = load ptr, ptr %4, align 8
  call void @_ZN6Sample17handleMeshChangedEP9InputGeom(ptr noundef nonnull align 8 dereferenceable(200) %5, ptr noundef %6)
  %7 = getelementptr inbounds %class.Sample_TempObstacles, ptr %5, i32 0, i32 6
  %8 = load ptr, ptr %7, align 8
  call void @_Z15dtFreeTileCacheP11dtTileCache(ptr noundef %8)
  %9 = getelementptr inbounds %class.Sample_TempObstacles, ptr %5, i32 0, i32 6
  store ptr null, ptr %9, align 8
  %10 = getelementptr inbounds %class.Sample, ptr %5, i32 0, i32 2
  %11 = load ptr, ptr %10, align 8
  call void @_Z13dtFreeNavMeshP9dtNavMesh(ptr noundef %11)
  %12 = getelementptr inbounds %class.Sample, ptr %5, i32 0, i32 2
  store ptr null, ptr %12, align 8
  %13 = getelementptr inbounds %class.Sample, ptr %5, i32 0, i32 23
  %14 = load ptr, ptr %13, align 8
  %15 = icmp ne ptr %14, null
  br i1 %15, label %16, label %31

16:                                               ; preds = %2
  %17 = getelementptr inbounds %class.Sample, ptr %5, i32 0, i32 23
  %18 = load ptr, ptr %17, align 8
  %19 = load ptr, ptr %18, align 8
  %20 = getelementptr inbounds ptr, ptr %19, i64 4
  %21 = load ptr, ptr %20, align 8
  call void %21(ptr noundef nonnull align 8 dereferenceable(8) %18)
  %22 = getelementptr inbounds %class.Sample, ptr %5, i32 0, i32 23
  %23 = load ptr, ptr %22, align 8
  %24 = load ptr, ptr %23, align 8
  %25 = getelementptr inbounds ptr, ptr %24, i64 3
  %26 = load ptr, ptr %25, align 8
  call void %26(ptr noundef nonnull align 8 dereferenceable(8) %23, ptr noundef %5)
  %27 = getelementptr inbounds %class.Sample_TempObstacles, ptr %5, i32 0, i32 5
  %28 = load ptr, ptr %27, align 8
  %29 = getelementptr inbounds %class.Sample, ptr %5, i32 0, i32 1
  %30 = load ptr, ptr %29, align 8
  call void @_ZN11MeshProcess4initEP9InputGeom(ptr noundef nonnull align 8 dereferenceable(16) %28, ptr noundef %30)
  br label %31

31:                                               ; preds = %16, %2
  call void @_ZN6Sample15resetToolStatesEv(ptr noundef nonnull align 8 dereferenceable(200) %5)
  call void @_ZN6Sample14initToolStatesEPS_(ptr noundef nonnull align 8 dereferenceable(200) %5, ptr noundef %5)
  ret void
}