; Function Attrs: mustprogress uwtable
define dso_local void @_ZN20Sample_TempObstacles17handleMeshChangedEP9InputGeom(ptr noundef nonnull align 8 dereferenceable(276) %0, ptr noundef %1) unnamed_addr #5 align 2 {
  tail call void @_ZN6Sample17handleMeshChangedEP9InputGeom(ptr noundef nonnull align 8 dereferenceable(200) %0, ptr noundef %1)
  %3 = getelementptr inbounds i8, ptr %0, i64 232
  %4 = load ptr, ptr %3, align 8
  tail call void @_Z15dtFreeTileCacheP11dtTileCache(ptr noundef %4)
  store ptr null, ptr %3, align 8
  %5 = getelementptr inbounds i8, ptr %0, i64 16
  %6 = load ptr, ptr %5, align 8
  tail call void @_Z13dtFreeNavMeshP9dtNavMesh(ptr noundef %6)
  store ptr null, ptr %5, align 8
  %7 = getelementptr inbounds i8, ptr %0, i64 104
  %8 = load ptr, ptr %7, align 8
  %.not = icmp eq ptr %8, null
  br i1 %.not, label %22, label %9

9:                                                ; preds = %2
  %10 = load ptr, ptr %8, align 8
  %11 = getelementptr inbounds i8, ptr %10, i64 32
  %12 = load ptr, ptr %11, align 8
  tail call void %12(ptr noundef nonnull align 8 dereferenceable(8) %8)
  %13 = load ptr, ptr %7, align 8
  %14 = load ptr, ptr %13, align 8
  %15 = getelementptr inbounds i8, ptr %14, i64 24
  %16 = load ptr, ptr %15, align 8
  tail call void %16(ptr noundef nonnull align 8 dereferenceable(8) %13, ptr noundef nonnull %0)
  %17 = getelementptr inbounds i8, ptr %0, i64 224
  %18 = load ptr, ptr %17, align 8
  %19 = getelementptr inbounds i8, ptr %0, i64 8
  %20 = load ptr, ptr %19, align 8
  %21 = getelementptr inbounds i8, ptr %18, i64 8
  store ptr %20, ptr %21, align 8
  br label %22

22:                                               ; preds = %9, %2
  tail call void @_ZN6Sample15resetToolStatesEv(ptr noundef nonnull align 8 dereferenceable(200) %0)
  tail call void @_ZN6Sample14initToolStatesEPS_(ptr noundef nonnull align 8 dereferenceable(200) %0, ptr noundef nonnull %0)
  ret void
}